(lp0
Vblowjob
p1
aVhardcore
p2
aVanal
p3
aVgay
p4
aVamateur
p5
aVbig
p6
aVpussy
p7
aVass
p8
aVblonde
p9
aVtits
p10
aVgirls
p11
aVsex
p12
aVbrunette
p13
aVteen
p14
aVcock
p15
aVwebcam
p16
aVfucking
p17
aVcumshot
p18
aVfuck
p19
aVlesbians
p20
aVshemale
p21
aVmasturbation
p22
aVfacial
p23
aVsolo
p24
aVthreesome
p25
aVoral
p26
aVasian
p27
aVcam
p28
aVfingering
p29
aVhot
p30
aVinterracial
p31
aVcum
p32
aVfree
p33
aVmilf
p34
aVhentai
p35
aVvideo
p36
aVbabe
p37
aVblow
p38
aVbusty
p39
aVdildo
p40
aVlesbian
p41
aVlive
p42
aVorgy
p43
aVporn
p44
aVpornstar
p45
aVwomen
p46
aVyoung
p47
aVhomemade
p48
aVparty
p49
aVshaved
p50
aVboobs
p51
aVcom
p52
aVdouble
p53
aVsexy
p54
aVteens
p55
aVtoys
p56
aVbrazil
p57
aVgroup
p58
aVjapanese
p59
aVmature
p60
aVsuck
p61
aVtranny
p62
aVblack
p63
aVbondage
p64
aVcollege
p65
aVcreampie
p66
aVfetish
p67
aVgangbang
p68
aVgirl
p69
aVgirlfriend
p70
aVlatina
p71
aVmasturbate
p72
aVnurse
p73
aVpussylicking
p74
aVbdsm
p75
aVbigtits
p76
aVcartoon
p77
aVcute
p78
aVdoggy
p79
aVgroupsex
p80
aVhuge
p81
aVjob
p82
aVmassage
p83
aVpenetration
p84
aVretro
p85
aVrimming
p86
aVteacher
p87
aVtoon
p88
aVvivthomas
p89
aVwhore
p90
aVwife
p91
aVakira
p92
aVanime
p93
aVann
p94
aVasa
p95
aVbabes
p96
aVbareback
p97
aVbukkake
p98
aVdick
p99
aVebony
p100
aVhandjob
p101
aVhandjobs
p102
aVhard
p103
aVman
p104
aVmofos
p105
aVoil
p106
aVpetite
p107
aVpov
p108
aVrough
p109
aVspeculum
p110
aVstripper
p111
aVstud
p112
aVteasing
p113
aVwet
p114
aVamatuer
p115
aVanalsex
p116
aVbeach
p117
aVblond
p118
aVboys
p119
aVbutt
p120
aVchina
p121
aVcumshots
p122
aVdagfs
p123
aVdancing
p124
aVdildos
p125
aVfake
p126
aVfeet
p127
aVfucks
p128
aVgyno
p129
aVhairy
p130
aVjohnthompson
p131
aVkelly
p132
aVlesbo
p133
aVlicking
p134
aVlisa
p135
aVmasturbating
p136
aVmmf
p137
aVmom
p138
aVold
p139
aVon1
p140
aVoutdoor
p141
aVpool
p142
aVpor
p143
aVpornstars
p144
aVredhead
p145
aVrussian
p146
aVschool
p147
aVschoolgirl
p148
aVskinny
p149
aVstraight
p150
aVsucking
p151
aVtoy
p152
aVvintage
p153
aVwhite
p154
aVxxx
p155
aVamature
p156
aVanimation
p157
aVart
p158
aVartwork
p159
aVawesome
p160
aVbang
p161
aVbath
p162
aVbbc
p163
aVbeautiful
p164
aVbigcock
p165
aVblondes
p166
aVblue
p167
aVboy
p168
aVboyfriend
p169
aVboysfirsttime
p170
aVbras
p171
aVbrazzers
p172
aVbreast
p173
aVbruna
p174
aVcfnm
p175
aVchick
p176
aVcindy
p177
aVclass
p178
aVcomic
p179
aVcouple
p180
aVcouples
p181
aVcrazy
p182
aVdeepthroat
p183
aVdevine
p184
aVdildoing
p185
aVdirty
p186
aVdoggystyle
p187
aVdped
p188
aVemo
p189
aVethnic
p190
aVfemdom
p191
aVffm
p192
aVgangb
p193
aVgape
p194
aVgaping
p195
aVgays
p196
aVglass
p197
aVgoth
p198
aVguy
p199
aVguys
p200
aVhardc
p201
aVhead
p202
aVhidden
p203
aVhole
p204
aVhorny
p205
aVhung
p206
aVhunk
p207
aVindian
p208
aVinnocenthigh
p209
aVinterview
p210
aVjackson
p211
aVjanet
p212
aVjapan
p213
aVjerk
p214
aVkim
p215
aVkissing
p216
aVladies
p217
aVladyboy
p218
aVlatin
p219
aVlaura
p220
aVlesbianorgy
p221
aVlingerie
p222
aVmasterbate
p223
aVmasterbation
p224
aVmen
p225
aVmonster
p226
aVmouth
p227
aVnaked
p228
aVnatural
p229
aVnice
p230
aVnude
p231
aVoutdoors
p232
aVpanties
p233
aVperon
p234
aVpink
p235
aVpolish
p236
aVporno
p237
aVpublic
p238
aVraw
p239
aVred
p240
aVsadie
p241
aVshorty
p242
aVshower
p243
aVslut
p244
aVslutty
p245
aVsmoking
p246
aVsquirt
p247
aVstar
p248
aVsteele
p249
aVstrap
p250
aVstriptease
p251
aVsucks
p252
aVswallow
p253
aVsweet
p254
aVtattoo
p255
aVtattoos
p256
aVtaylor
p257
aVthreesomes
p258
aVtight
p259
aVtrans
p260
aVtranssexual
p261
aVtwink
p262
aVtwinks
p263
aVuniform
p264
aVwest
p265
aVwild
p266
aVair
p267
aValaura
p268
aValexander
p269
aVallie
p270
aValternative
p271
aValways
p272
aVama
p273
aVamate
p274
aVamateu
p275
aVamateurs
p276
aVamaz
p277
aVamerica
p278
aVamy
p279
aVanais
p280
aVanel
p281
aVaneta
p282
aVangel
p283
aVangelica
p284
aVangels
p285
aVarab
p286
aVaria
p287
aVariel
p288
aVartis
p289
aVartist
p290
aVashley
p291
aVashlyn
p292
aVashlynn
p293
aVashton
p294
aVasi
p295
aVasia
p296
aVassf
p297
aVassfuck
p298
aVassfucking
p299
aVasshole
p300
aVasslicking
p301
aVasstomouth
p302
aVatm
p303
aVaureola
p304
aVaurora
p305
aVaustin
p306
aVaxen
p307
aVbab
p308
aVbajan
p309
aVballs
p310
aVbamboo
p311
aVbarbados
p312
aVbareass
p313
aVbat
p314
aVbathroom
p315
aVbbw
p316
aVbean
p317
aVbeauty
p318
aVbed
p319
aVbehi
p320
aVbella
p321
aVbenson
p322
aVbigboob
p323
aVbigtit
p324
aVbikini
p325
aVbisensation
p326
aVbisexual
p327
aVbitch
p328
aVblowbanged
p329
aVblowjo
p330
aVblowmydicknow
p331
aVbluemontana
p332
aVbody
p333
aVboss
p334
aVbounci
p335
aVbound
p336
aVbrenin
p337
aVbridgette
p338
aVbrighton
p339
aVbritish
p340
aVbritney
p341
aVbroke
p342
aVbrooke
p343
aVbru
p344
aVbub
p345
aVbubble
p346
aVbukkakeboys
p347
aVbunny
p348
aVbyrne
p349
aVcamshow
p350
aVcanada
p351
aVcar
p352
aVcarsex
p353
aVcartoons
p354
aVcash
p355
aVcaught
p356
aVcelebrity
p357
aVcharlie
p358
aVchinese
p359
aVchristie
p360
aVchubby
p361
aVcindyred
p362
aVclassroom
p363
aVcle
p364
aVcleavage02
p365
aVclinic
p366
aVclit
p367
aVclothes
p368
aVcoc
p369
aVcocksucking
p370
aVcody
p371
aVcoed
p372
aVcole
p373
aVcoming
p374
aVcommand
p375
aVcompilation
p376
aVconstruction
p377
aVcorset
p378
aVcowgirl
p379
aVcox
p380
aVcream
p381
aVcreampies
p382
aVcrossdresser
p383
aVcruelty
p384
aVcucumber
p385
aVculo
p386
aVcumeating
p387
aVcumming
p388
aVcums
p389
aVcumswap
p390
aVcumtrainer
p391
aVcunilingus
p392
aVcyntheria
p393
aVcytherea
p394
aVdag
p395
aVdaisy
p396
aVdaniel
p397
aVdap
p398
aVdarlin
p399
aVdarling
p400
aVdeep
p401
aVdeepth
p402
aVdeepthr
p403
aVdevice
p404
aVdiamond
p405
aVdic
p406
aVdil
p407
aVdiniz
p408
aVdivinity
p409
aVdmilf
p410
aVdoctor
p411
aVdoggstyle
p412
aVdomination
p413
aVdominatrix
p414
aVdougjones
p415
aVdrake
p416
aVdream
p417
aVdrilled
p418
aVdrunk
p419
aVeastern
p420
aVeden
p421
aVehbu
p422
aVelle
p423
aVemanuelle
p424
aVenema
p425
aVenemas
p426
aVenvy
p427
aVero
p428
aVeurope
p429
aVeuropean
p430
aVexgf
p431
aVextremebukkake
p432
aVface
p433
aVfacefuck
p434
aVfacia
p435
aVfacials
p436
aVfantasy
p437
aVfelch
p438
aVfelching
p439
aVfemsub
p440
aVferraz
p441
aVfight
p442
aVfilipino
p443
aVfin
p444
aVfingeri
p445
aVfingerin
p446
aVfinishes
p447
aVfirm
p448
aVfirst
p449
aVfmm
p450
aVfoot
p451
aVfootbal
p452
aVfootjob
p453
aVforeskin
p454
aVfourgy
p455
aVfredrinawarren
p456
aVfrench
p457
aVfrend
p458
aVfriends
p459
aVfucki
p460
aVfuckingthehelp
p461
aVfun
p462
aVgag
p463
aVgagged
p464
aVgagging
p465
aVgair
p466
aVgang
p467
aVgaygangsta
p468
aVgaymen
p469
aVgeorgia
p470
aVgermangoogirls
p471
aVgetting
p472
aVggg
p473
aVgill
p474
aVgina
p475
aVgirlfr
p476
aVgirlon
p477
aVgirlongirl
p478
aVgla
p479
aVglans
p480
aVglory
p481
aVgloryhole
p482
aVgnyoc
p483
aVgodso
p484
aVgonzo
p485
aVgood
p486
aVgorgeous
p487
aVgrandpa
p488
aVgranny
p489
aVgratis
p490
aVgreat
p491
aVgreatscott
p492
aVgrou
p493
aVgym
p494
aVhands
p495
aVhar
p496
aVhardore
p497
aVhardsex
p498
aVhaylazadam50
p499
aVhaze
p500
aVheels
p501
aVhelpless
p502
aVhogtie
p503
aVhooters
p504
aVhope
p505
aVhousewife
p506
aVhurley
p507
aVinch
p508
aVindo
p509
aVindonesia
p510
aVinter
p511
aVinteracial
p512
aVinterrracial
p513
aVintruction
p514
aVitalian
p515
aVjacking
p516
aVjaden
p517
aVjamie
p518
aVjase
p519
aVjasmine
p520
aVjaynes
p521
aVjenna
p522
aVjennifer
p523
aVjerking
p524
aVjerkoff
p525
aVjerks
p526
aVjessica
p527
aVjhonnyvega
p528
aVjill
p529
aVjizz
p530
aVjodi
p531
aVjolie
p532
aVjonathan
p533
aVjones
p534
aVjuggs
p535
aVjugs
p536
aVjuli
p537
aVjulian
p538
aVjulie
p539
aVjynx
p540
aVkaif
p541
aVkamilla
p542
aVkassin
p543
aVkatie
p544
aVkatja
p545
aVkatrina
p546
aVkaylee
p547
aVkerkove
p548
aVkeyes
p549
aVkirsten
p550
aVkitchen
p551
aVkob
p552
aVkombat
p553
aVkristina
p554
aVlady
p555
aVladyboygoo
p556
aVlaine
p557
aVlane
p558
aVlarge
p559
aVlashin
p560
aVlatino
p561
aVlawless
p562
aVlee
p563
aVleed
p564
aVlex
p565
aVlexington
p566
aVlez
p567
aVlezbo
p568
aVlick
p569
aVlicked
p570
aVlidija
p571
aVlike
p572
aVlily
p573
aVlindey
p574
aVling
p575
aVlion
p576
aVlips
p577
aVlitle
p578
aVlittle
p579
aVlocker
p580
aVlolita
p581
aVlollipop
p582
aVlondon
p583
aVlove
p584
aVlowe
p585
aVlustee
p586
aVlynn
p587
aVmac
p588
aVmaid
p589
aVmaledom
p590
aVmallory
p591
aVmandingo
p592
aVmanson
p593
aVmarcus
p594
aVmarie
p595
aVmarine
p596
aVmasterbating
p597
aVmasturba
p598
aVmayes
p599
aVmaze
p600
aVmccray
p601
aVmeadows
p602
aVmeatmembers
p603
aVmicaela
p604
aVmiddle
p605
aVmilfs
p606
aVmodel
p607
aVmodels
p608
aVmoms
p609
aVmoney
p610
aVmorgan
p611
aVmoser
p612
aVmuscle
p613
aVmusic
p614
aVmynx
p615
aVnaughty
p616
aVnew
p617
aVnextdoornikki
p618
aVnicole
p619
aVnipples
p620
aVnuru
p621
aVof3
p622
aVolivia
p623
aVora
p624
aVoralsex
p625
aVorga
p626
aVorgasm
p627
aVorgasme
p628
aVoutside
p629
aVpage
p630
aVpale
p631
aVpanama
p632
aVparker
p633
aVparody
p634
aVparties
p635
aVpeaches
p636
aVpee
p637
aVpenis
p638
aVpennis
p639
aVperfect
p640
aVperk
p641
aVpeter
p642
aVphatass
p643
aVphone
p644
aVpiercing
p645
aVpilot
p646
aVplay
p647
aVplaying
p648
aVpoint
p649
aVpolisch
p650
aVpornpros
p651
aVpregnant
p652
aVprestige
p653
aVprice
p654
aVpuba
p655
aVpunk
p656
aVpussye
p657
aVque
p658
aVqueer
p659
aVracial
p660
aVrandi
p661
aVrandy
p662
aVrasta
p663
aVrawpapi
p664
aVray
p665
aVraylene
p666
aVready
p667
aVreal
p668
aVrealit
p669
aVrebecca
p670
aVredheads
p671
aVrenee
p672
aVretr
p673
aVrimjob
p674
aVroom
p675
aVrose
p676
aVrubbing
p677
aVrumania
p678
aVryder
p679
aVsabine
p680
aVsaint
p681
aVsarah
p682
aVsarajay
p683
aVscene5
p684
aVscott
p685
aVseduction
p686
aVseed
p687
aVselena
p688
aVsensual
p689
aVsharka
p690
aVshemales
p691
aVshot
p692
aVshow
p693
aVshy
p694
aVsilvia
p695
aVsin
p696
aVskater
p697
aVsky
p698
aVslender
p699
aVsmall
p700
aVsmalltits
p701
aVsoapy
p702
aVsocker
p703
aVsocks
p704
aVsole
p705
aVspanish
p706
aVspanking
p707
aVsperk
p708
aVsperm
p709
aVspunk
p710
aVsquirting
p711
aVsquirtwoman
p712
aVstarr
p713
aVstarring
p714
aVstevens
p715
aVstewardess
p716
aVstocking
p717
aVstockings
p718
aVstrapon
p719
aVstreet
p720
aVstretch
p721
aVstriaght
p722
aVstripping
p723
aVstroking
p724
aVstudent
p725
aVsubmission
p726
aVsunbed
p727
aVsunjerga
p728
aVsurprise
p729
aVswallowing
p730
aVswap
p731
aVswollen
p732
aVsydnee
p733
aVtabitha
p734
aVtake
p735
aVtakes
p736
aVtall
p737
aVtanner
p738
aVtatooed
p739
aVtattos
p740
aVteases
p741
aVteenager
p742
aVtest
p743
aVtgirl
p744
aVthanh
p745
aVthisgirlsucks
p746
aVthong
p747
aVthroat
p748
aVtia
p749
aVtiana
p750
aVtiffany
p751
aVtigerr
p752
aVtit
p753
aVtittyattack
p754
aVtoe
p755
aVtoons
p756
aVtorrent
p757
aVtoying
p758
aVtrannies
p759
aVtransvest
p760
aVtransvestite
p761
aVtree
p762
aVtrimed
p763
aVtrimm
p764
aVtsseduction
p765
aVtub
p766
aVtwins
p767
aVtwo
p768
aVukrainian
p769
aVuncut
p770
aVusmc
p771
aVv0094
p772
aVvalerie
p773
aVvasquez
p774
aVveggie
p775
aVvette
p776
aVvicky
p777
aVvictoria
p778
aVview
p779
aVviolcia
p780
aVviolet
p781
aVvoyeur
p782
aVwaitress
p783
aVwank
p784
aVwarm
p785
aVway
p786
aVweb
p787
aVwells
p788
aVwinters
p789
aVwives
p790
aVwork
p791
aVwrestle
p792
aVwrestling
p793
aVwright
p794
aVxposter01
p795
aVxposters
p796
aVyoun
p797
aVyoungsters
p798
aVzdrok
p799
a.